; Function Attrs: mustprogress uwtable
define hidden void @_ZN11opencv_test22test_len_hal_normL2Sqr12PerfTestBodyEv(ptr noundef nonnull align 8 dereferenceable(256) %0) unnamed_addr #4 align 2 personality ptr @__gxx_personality_v0 {
  %2 = alloca %"class.cv::Mat", align 8
  %3 = alloca %"class.cv::Mat", align 8
  %4 = alloca %"class.cv::_InputOutputArray", align 8
  %5 = alloca %"class.cv::_InputOutputArray", align 8
  %6 = getelementptr inbounds nuw i8, ptr %0, i64 248
  %7 = tail call noundef nonnull align 4 dereferenceable(4) ptr @_ZNK7testing18WithParamInterfaceIiE8GetParamEv(ptr noundef nonnull align 8 dereferenceable(8) %6)
  %8 = load i32, ptr %7, align 4, !tbaa !245
  call void @llvm.lifetime.start.p0(i64 96, ptr nonnull %2) #30
  call void @_ZN2cv3MatC1Eiii(ptr noundef nonnull align 8 dereferenceable(96) %2, i32 noundef 1, i32 noundef %8, i32 noundef 5)
  call void @llvm.lifetime.start.p0(i64 96, ptr nonnull %3) #30
  invoke void @_ZN2cv3MatC1Eiii(ptr noundef nonnull align 8 dereferenceable(96) %3, i32 noundef 1, i32 noundef %8, i32 noundef 5)
          to label %9 unwind label %30

9:                                                ; preds = %1
  %10 = getelementptr inbounds nuw i8, ptr %0, i64 240
  call void @llvm.lifetime.start.p0(i64 24, ptr nonnull %4) #30
  %11 = getelementptr inbounds nuw i8, ptr %4, i64 8
  %12 = getelementptr inbounds nuw i8, ptr %4, i64 16
  store i64 0, ptr %12, align 8
  store i32 50397184, ptr %4, align 8, !tbaa !86
  store ptr %2, ptr %11, align 8, !tbaa !89
  call void @llvm.lifetime.start.p0(i64 24, ptr nonnull %5) #30
  %13 = getelementptr inbounds nuw i8, ptr %5, i64 8
  %14 = getelementptr inbounds nuw i8, ptr %5, i64 16
  store i64 0, ptr %14, align 8
  store i32 50397184, ptr %5, align 8, !tbaa !86
  store ptr %3, ptr %13, align 8, !tbaa !89
  %15 = invoke noundef nonnull align 8 dereferenceable(8) ptr @_ZN4perf8TestBase14_declareHelper2inERKN2cv17_InputOutputArrayES5_NS0_10WarmUpTypeE(ptr noundef nonnull align 8 dereferenceable(8) %10, ptr noundef nonnull align 8 dereferenceable(24) %4, ptr noundef nonnull align 8 dereferenceable(24) %5, i32 noundef 2)
          to label %16 unwind label %32

16:                                               ; preds = %9
  call void @llvm.lifetime.end.p0(i64 24, ptr nonnull %5) #30
  call void @llvm.lifetime.end.p0(i64 24, ptr nonnull %4) #30
  %17 = getelementptr inbounds nuw i8, ptr %2, i64 16
  %18 = getelementptr inbounds nuw i8, ptr %3, i64 16
  br label %19

19:                                               ; preds = %29, %16
  %20 = invoke noundef zeroext i1 @_ZN4perf8TestBase4nextEv(ptr noundef nonnull align 8 dereferenceable(248) %0)
          to label %21 unwind label %34

21:                                               ; preds = %19
  br i1 %20, label %22, label %.critedge

22:                                               ; preds = %21
  %23 = invoke noundef zeroext i1 @_ZN4perf8TestBase10startTimerEv(ptr noundef nonnull align 8 dereferenceable(248) %0)
          to label %24 unwind label %34

24:                                               ; preds = %22
  br i1 %23, label %25, label %.critedge

25:                                               ; preds = %24
  %26 = load ptr, ptr %17, align 8, !tbaa !346
  %27 = load ptr, ptr %18, align 8, !tbaa !346
  %28 = invoke noundef float @_ZN2cv3hal10normL2Sqr_EPKfS2_i(ptr noundef %26, ptr noundef %27, i32 noundef %8)
          to label %29 unwind label %34

29:                                               ; preds = %25
  invoke void @_ZN4perf8TestBase9stopTimerEv(ptr noundef nonnull align 8 dereferenceable(248) %0)
          to label %19 unwind label %34, !llvm.loop !397

30:                                               ; preds = %1
  %31 = landingpad { ptr, i32 }
          cleanup
  br label %38

32:                                               ; preds = %9
  %33 = landingpad { ptr, i32 }
          cleanup
  call void @llvm.lifetime.end.p0(i64 24, ptr nonnull %5) #30
  call void @llvm.lifetime.end.p0(i64 24, ptr nonnull %4) #30
  br label %37

34:                                               ; preds = %29, %25, %22, %19
  %35 = landingpad { ptr, i32 }
          cleanup
  br label %37

.critedge:                                        ; preds = %21, %24
  %36 = getelementptr inbounds nuw i8, ptr %0, i64 232
  store i8 1, ptr %36, align 8, !tbaa !348
  call void @_ZN2cv3MatD1Ev(ptr noundef nonnull align 8 dereferenceable(96) %3) #30
  call void @llvm.lifetime.end.p0(i64 96, ptr nonnull %3) #30
  call void @_ZN2cv3MatD1Ev(ptr noundef nonnull align 8 dereferenceable(96) %2) #30
  call void @llvm.lifetime.end.p0(i64 96, ptr nonnull %2) #30
  ret void

37:                                               ; preds = %34, %32
  %.pn11 = phi { ptr, i32 } [ %35, %34 ], [ %33, %32 ]
  call void @_ZN2cv3MatD1Ev(ptr noundef nonnull align 8 dereferenceable(96) %3) #30
  br label %38

38:                                               ; preds = %37, %30
  %.pn11.pn = phi { ptr, i32 } [ %.pn11, %37 ], [ %31, %30 ]
  call void @llvm.lifetime.end.p0(i64 96, ptr nonnull %3) #30
  call void @_ZN2cv3MatD1Ev(ptr noundef nonnull align 8 dereferenceable(96) %2) #30
  call void @llvm.lifetime.end.p0(i64 96, ptr nonnull %2) #30
  resume { ptr, i32 } %.pn11.pn
}